target datalayout = "e-m:e-p270:32:32-p271:32:32-p272:64:64-i64:64-i128:128-f80:128-n8:16:32:64-S128"
target triple = "x86_64-pc-linux-gnu"

%struct.Curl_llist_node = type { ptr, ptr, ptr, ptr }
%struct.easy_pollset = type { [5 x i32], i32, [5 x i8] }
%struct.curltime = type { i64, i32 }
%struct.ssl_primary_config = type { ptr, ptr, ptr, ptr, ptr, ptr, ptr, ptr, ptr, ptr, ptr, ptr, ptr, ptr, i8, i32, i8, i8 }
%struct.dynbuf = type { ptr, i64, i64, i64 }
%struct.Curl_llist = type { ptr, ptr, ptr, i64 }
%struct.ip_quadruple = type { [46 x i8], [46 x i8], i32, i32 }
%struct.connectdata = type { %struct.Curl_llist_node, ptr, ptr, i64, ptr, i64, ptr, ptr, %struct.hostname, ptr, ptr, %struct.hostname, %struct.proxy_info, %struct.proxy_info, %struct.ip_quadruple, %struct.ip_quadruple, ptr, ptr, ptr, ptr, ptr, %struct.curltime, %struct.curltime, %struct.curltime, [2 x i32], [2 x ptr], [2 x ptr], [2 x ptr], %struct.anon, %struct.easy_pollset, %struct.ssl_primary_config, %struct.ssl_primary_config, %struct.ConnectBits, ptr, ptr, %struct.curltime, i32, i32, %struct.Curl_llist, i32, i32, %struct.ntlmdata, %struct.ntlmdata, %union.anon.2, ptr, ptr, i16, i32, i32, i32, i32, i16, i16, i8, i8, i8, i8, i8, i8, i8 }
%struct.hostname = type { ptr, ptr, ptr, ptr }
%struct.proxy_info = type { %struct.hostname, i32, i8, ptr, ptr }
%struct.anon = type { [2 x %struct.curltime], i32 }
%struct.ConnectBits = type { i64 }
%struct.ntlmdata = type { i32, [8 x i8], i32, ptr }
%union.anon.2 = type { %struct.ftp_conn }
%struct.ftp_conn = type { %struct.pingpong, ptr, ptr, ptr, ptr, ptr, ptr, ptr, i8, i64, ptr, i64, i32, i32, i32, i32, i32, i16, i8, i8, i8, i8, i8 }
%struct.pingpong = type { i64, i8, ptr, i64, i64, %struct.curltime, i64, %struct.dynbuf, %struct.dynbuf, i64, i64, ptr, ptr }

; Function Attrs: nounwind uwtable
define internal i32 @socket_close(ptr noundef %0, ptr noundef %1, i32 noundef %2, i32 noundef %3) #0 {
  %5 = alloca i32, align 4
  %6 = alloca ptr, align 8
  %7 = alloca ptr, align 8
  %8 = alloca i32, align 4
  %9 = alloca i32, align 4
  %10 = alloca i32, align 4
  store ptr %0, ptr %6, align 8, !tbaa !23
  store ptr %1, ptr %7, align 8, !tbaa !109
  store i32 %2, ptr %8, align 4, !tbaa !10
  store i32 %3, ptr %9, align 4, !tbaa !10
  %11 = load i32, ptr %9, align 4, !tbaa !10
  %12 = icmp eq i32 -1, %11
  br i1 %12, label %13, label %14

13:                                               ; preds = %4
  store i32 0, ptr %5, align 4
  br label %48

14:                                               ; preds = %4
  %15 = load i32, ptr %8, align 4, !tbaa !10
  %16 = icmp ne i32 %15, 0
  br i1 %16, label %17, label %39

17:                                               ; preds = %14
  %18 = load ptr, ptr %7, align 8, !tbaa !109
  %19 = icmp ne ptr %18, null
  br i1 %19, label %20, label %39

20:                                               ; preds = %17
  %21 = load ptr, ptr %7, align 8, !tbaa !109
  %22 = getelementptr inbounds nuw %struct.connectdata, ptr %21, i32 0, i32 1
  %23 = load ptr, ptr %22, align 8, !tbaa !110
  %24 = icmp ne ptr %23, null
  br i1 %24, label %25, label %39

25:                                               ; preds = %20
  call void @llvm.lifetime.start.p0(i64 4, ptr %10) #9
  %26 = load ptr, ptr %6, align 8, !tbaa !23
  %27 = load i32, ptr %9, align 4, !tbaa !10
  call void @Curl_multi_closed(ptr noundef %26, i32 noundef %27)
  %28 = load ptr, ptr %6, align 8, !tbaa !23
  call void @Curl_set_in_callback(ptr noundef %28, i1 noundef zeroext true)
  %29 = load ptr, ptr %7, align 8, !tbaa !109
  %30 = getelementptr inbounds nuw %struct.connectdata, ptr %29, i32 0, i32 1
  %31 = load ptr, ptr %30, align 8, !tbaa !110
  %32 = load ptr, ptr %7, align 8, !tbaa !109
  %33 = getelementptr inbounds nuw %struct.connectdata, ptr %32, i32 0, i32 2
  %34 = load ptr, ptr %33, align 8, !tbaa !111
  %35 = load i32, ptr %9, align 4, !tbaa !10
  %36 = call i32 %31(ptr noundef %34, i32 noundef %35)
  store i32 %36, ptr %10, align 4, !tbaa !10
  %37 = load ptr, ptr %6, align 8, !tbaa !23
  call void @Curl_set_in_callback(ptr noundef %37, i1 noundef zeroext false)
  %38 = load i32, ptr %10, align 4, !tbaa !10
  store i32 %38, ptr %5, align 4
  call void @llvm.lifetime.end.p0(i64 4, ptr %10) #9
  br label %48

39:                                               ; preds = %20, %17, %14
  %40 = load ptr, ptr %7, align 8, !tbaa !109
  %41 = icmp ne ptr %40, null
  br i1 %41, label %42, label %45

42:                                               ; preds = %39
  %43 = load ptr, ptr %6, align 8, !tbaa !23
  %44 = load i32, ptr %9, align 4, !tbaa !10
  call void @Curl_multi_closed(ptr noundef %43, i32 noundef %44)
  br label %45

45:                                               ; preds = %42, %39
  %46 = load i32, ptr %9, align 4, !tbaa !10
  %47 = call i32 @close(i32 noundef %46)
  store i32 0, ptr %5, align 4
  br label %48

48:                                               ; preds = %45, %25, %13
  %49 = load i32, ptr %5, align 4
  ret i32 %49
}

; Function Attrs: nounwind uwtable
define hidden i32 @Curl_socket_close(ptr noundef %0, ptr noundef %1, i32 noundef %2) #0 {
  %4 = alloca ptr, align 8
  %5 = alloca ptr, align 8
  %6 = alloca i32, align 4
  store ptr %0, ptr %4, align 8, !tbaa !23
  store ptr %1, ptr %5, align 8, !tbaa !109
  store i32 %2, ptr %6, align 4, !tbaa !10
  %7 = load ptr, ptr %4, align 8, !tbaa !23
  %8 = load ptr, ptr %5, align 8, !tbaa !109
  %9 = load i32, ptr %6, align 4, !tbaa !10
  %10 = call i32 @socket_close(ptr noundef %7, ptr noundef %8, i32 noundef 0, i32 noundef %9)
  ret i32 %10
}