; Function Attrs: nounwind uwtable
define hidden noundef i32 @Curl_socket_close(ptr noundef %0, ptr noundef readnone %1, i32 noundef %2) local_unnamed_addr #2 {
  %4 = icmp eq i32 %2, -1
  br i1 %4, label %socket_close.exit, label %5

5:                                                ; preds = %3
  %.not = icmp eq ptr %1, null
  br i1 %.not, label %6, label %.thread.i

.thread.i:                                        ; preds = %5
  tail call void @Curl_multi_closed(ptr noundef %0, i32 noundef %2) #13
  br label %6

6:                                                ; preds = %.thread.i, %5
  %7 = tail call i32 @close(i32 noundef %2) #13
  br label %socket_close.exit

socket_close.exit:                                ; preds = %3, %6
  ret i32 0
}